target datalayout = "e-m:e-p270:32:32-p271:32:32-p272:64:64-i64:64-i128:128-f80:128-n8:16:32:64-S128"
target triple = "x86_64-unknown-linux-gnu"

%"class.pugi::impl::(anonymous namespace)::xml_buffered_writer" = type <{ [2048 x i8], %union.anon.5, ptr, i64, i32, [4 x i8] }>
%union.anon.5 = type { [2048 x i32] }

; Function Attrs: mustprogress nounwind uwtable
define internal noundef i32 @_ZN4pugi4impl12_GLOBAL__N_125get_write_native_encodingEv() #0 {
entry:
  ret i32 1
}

; Function Attrs: mustprogress uwtable
define internal noundef i64 @_ZN4pugi4impl12_GLOBAL__N_119xml_buffered_writer5flushEv(ptr noundef nonnull align 8 dereferenceable(10260) %this) #2 align 2 {
entry:
  %this.addr = alloca ptr, align 8
  store ptr %this, ptr %this.addr, align 8
  %this1 = load ptr, ptr %this.addr, align 8
  %buffer = getelementptr inbounds %"class.pugi::impl::(anonymous namespace)::xml_buffered_writer", ptr %this1, i32 0, i32 0
  %arraydecay = getelementptr inbounds [2048 x i8], ptr %buffer, i64 0, i64 0
  %bufsize = getelementptr inbounds %"class.pugi::impl::(anonymous namespace)::xml_buffered_writer", ptr %this1, i32 0, i32 3
  %0 = load i64, ptr %bufsize, align 8
  call void @_ZN4pugi4impl12_GLOBAL__N_119xml_buffered_writer5flushEPKcm(ptr noundef nonnull align 8 dereferenceable(10260) %this1, ptr noundef %arraydecay, i64 noundef %0)
  %bufsize2 = getelementptr inbounds %"class.pugi::impl::(anonymous namespace)::xml_buffered_writer", ptr %this1, i32 0, i32 3
  store i64 0, ptr %bufsize2, align 8
  ret i64 0
}

; Function Attrs: mustprogress uwtable
define internal void @_ZN4pugi4impl12_GLOBAL__N_119xml_buffered_writer12write_directEPKcm(ptr noundef nonnull align 8 dereferenceable(10260) %this, ptr noundef %data, i64 noundef %length) #2 align 2 {
entry:
  %this.addr = alloca ptr, align 8
  %data.addr = alloca ptr, align 8
  %length.addr = alloca i64, align 8
  %chunk_size = alloca i64, align 8
  store ptr %this, ptr %this.addr, align 8
  store ptr %data, ptr %data.addr, align 8
  store i64 %length, ptr %length.addr, align 8
  %this1 = load ptr, ptr %this.addr, align 8
  %call = call noundef i64 @_ZN4pugi4impl12_GLOBAL__N_119xml_buffered_writer5flushEv(ptr noundef nonnull align 8 dereferenceable(10260) %this1)
  %0 = load i64, ptr %length.addr, align 8
  %cmp = icmp ugt i64 %0, 2048
  br i1 %cmp, label %if.then, label %if.end7

if.then:                                          ; preds = %entry
  %encoding = getelementptr inbounds %"class.pugi::impl::(anonymous namespace)::xml_buffered_writer", ptr %this1, i32 0, i32 4
  %1 = load i32, ptr %encoding, align 8
  %call2 = call noundef i32 @_ZN4pugi4impl12_GLOBAL__N_125get_write_native_encodingEv()
  %cmp3 = icmp eq i32 %1, %call2
  br i1 %cmp3, label %if.then4, label %if.end

if.then4:                                         ; preds = %if.then
  %writer = getelementptr inbounds %"class.pugi::impl::(anonymous namespace)::xml_buffered_writer", ptr %this1, i32 0, i32 2
  %2 = load ptr, ptr %writer, align 8
  %3 = load ptr, ptr %data.addr, align 8
  %4 = load i64, ptr %length.addr, align 8
  %mul = mul i64 %4, 1
  %vtable = load ptr, ptr %2, align 8
  %vfn = getelementptr inbounds ptr, ptr %vtable, i64 2
  %5 = load ptr, ptr %vfn, align 8
  call void %5(ptr noundef nonnull align 8 dereferenceable(8) %2, ptr noundef %3, i64 noundef %mul)
  br label %return

if.end:                                           ; preds = %if.then
  br label %while.cond

while.cond:                                       ; preds = %while.body, %if.end
  %6 = load i64, ptr %length.addr, align 8
  %cmp5 = icmp ugt i64 %6, 2048
  br i1 %cmp5, label %while.body, label %while.end

while.body:                                       ; preds = %while.cond
  %7 = load ptr, ptr %data.addr, align 8
  %call6 = call noundef i64 @_ZN4pugi4impl12_GLOBAL__N_116get_valid_lengthEPKcm(ptr noundef %7, i64 noundef 2048)
  store i64 %call6, ptr %chunk_size, align 8
  %8 = load ptr, ptr %data.addr, align 8
  %9 = load i64, ptr %chunk_size, align 8
  call void @_ZN4pugi4impl12_GLOBAL__N_119xml_buffered_writer5flushEPKcm(ptr noundef nonnull align 8 dereferenceable(10260) %this1, ptr noundef %8, i64 noundef %9)
  %10 = load i64, ptr %chunk_size, align 8
  %11 = load ptr, ptr %data.addr, align 8
  %add.ptr = getelementptr inbounds i8, ptr %11, i64 %10
  store ptr %add.ptr, ptr %data.addr, align 8
  %12 = load i64, ptr %chunk_size, align 8
  %13 = load i64, ptr %length.addr, align 8
  %sub = sub i64 %13, %12
  store i64 %sub, ptr %length.addr, align 8
  br label %while.cond, !llvm.loop !177

while.end:                                        ; preds = %while.cond
  %bufsize = getelementptr inbounds %"class.pugi::impl::(anonymous namespace)::xml_buffered_writer", ptr %this1, i32 0, i32 3
  store i64 0, ptr %bufsize, align 8
  br label %if.end7

if.end7:                                          ; preds = %while.end, %entry
  %buffer = getelementptr inbounds %"class.pugi::impl::(anonymous namespace)::xml_buffered_writer", ptr %this1, i32 0, i32 0
  %arraydecay = getelementptr inbounds [2048 x i8], ptr %buffer, i64 0, i64 0
  %bufsize8 = getelementptr inbounds %"class.pugi::impl::(anonymous namespace)::xml_buffered_writer", ptr %this1, i32 0, i32 3
  %14 = load i64, ptr %bufsize8, align 8
  %add.ptr9 = getelementptr inbounds i8, ptr %arraydecay, i64 %14
  %15 = load ptr, ptr %data.addr, align 8
  %16 = load i64, ptr %length.addr, align 8
  %mul10 = mul i64 %16, 1
  call void @llvm.memcpy.p0.p0.i64(ptr align 1 %add.ptr9, ptr align 1 %15, i64 %mul10, i1 false)
  %17 = load i64, ptr %length.addr, align 8
  %bufsize11 = getelementptr inbounds %"class.pugi::impl::(anonymous namespace)::xml_buffered_writer", ptr %this1, i32 0, i32 3
  %18 = load i64, ptr %bufsize11, align 8
  %add = add i64 %18, %17
  store i64 %add, ptr %bufsize11, align 8
  br label %return

return:                                           ; preds = %if.end7, %if.then4
  ret void
}

; Function Attrs: mustprogress nounwind uwtable
define internal noundef i64 @_ZN4pugi4impl12_GLOBAL__N_19strlengthEPKc(ptr noundef %s) #0 {
entry:
  %s.addr = alloca ptr, align 8
  store ptr %s, ptr %s.addr, align 8
  %0 = load ptr, ptr %s.addr, align 8
  %call = call i64 @strlen(ptr noundef %0) #15
  ret i64 %call
}

; Function Attrs: mustprogress nounwind uwtable
define internal noundef i64 @_ZN4pugi4impl12_GLOBAL__N_116get_valid_lengthEPKcm(ptr noundef %data, i64 noundef %length) #0 {
entry:
  %retval = alloca i64, align 8
  %data.addr = alloca ptr, align 8
  %length.addr = alloca i64, align 8
  %i = alloca i64, align 8
  %ch = alloca i8, align 1
  store ptr %data, ptr %data.addr, align 8
  store i64 %length, ptr %length.addr, align 8
  %0 = load i64, ptr %length.addr, align 8
  %cmp = icmp ult i64 %0, 5
  br i1 %cmp, label %if.then, label %if.end

if.then:                                          ; preds = %entry
  store i64 0, ptr %retval, align 8
  br label %return

if.end:                                           ; preds = %entry
  store i64 1, ptr %i, align 8
  br label %for.cond

for.cond:                                         ; preds = %for.inc, %if.end
  %1 = load i64, ptr %i, align 8
  %cmp1 = icmp ule i64 %1, 4
  br i1 %cmp1, label %for.body, label %for.end

for.body:                                         ; preds = %for.cond
  %2 = load ptr, ptr %data.addr, align 8
  %3 = load i64, ptr %length.addr, align 8
  %4 = load i64, ptr %i, align 8
  %sub = sub i64 %3, %4
  %arrayidx = getelementptr inbounds i8, ptr %2, i64 %sub
  %5 = load i8, ptr %arrayidx, align 1
  store i8 %5, ptr %ch, align 1
  %6 = load i8, ptr %ch, align 1
  %conv = zext i8 %6 to i32
  %and = and i32 %conv, 192
  %cmp2 = icmp ne i32 %and, 128
  br i1 %cmp2, label %if.then3, label %if.end5

if.then3:                                         ; preds = %for.body
  %7 = load i64, ptr %length.addr, align 8
  %8 = load i64, ptr %i, align 8
  %sub4 = sub i64 %7, %8
  store i64 %sub4, ptr %retval, align 8
  br label %return

if.end5:                                          ; preds = %for.body
  br label %for.inc

for.inc:                                          ; preds = %if.end5
  %9 = load i64, ptr %i, align 8
  %inc = add i64 %9, 1
  store i64 %inc, ptr %i, align 8
  br label %for.cond, !llvm.loop !178

for.end:                                          ; preds = %for.cond
  %10 = load i64, ptr %length.addr, align 8
  store i64 %10, ptr %retval, align 8
  br label %return

return:                                           ; preds = %for.end, %if.then3, %if.then
  %11 = load i64, ptr %retval, align 8
  ret i64 %11
}

; Function Attrs: mustprogress uwtable
define internal void @_ZN4pugi4impl12_GLOBAL__N_119xml_buffered_writer12write_stringEPKc(ptr noundef nonnull align 8 dereferenceable(10260) %this, ptr noundef %data) #2 align 2 {
entry:
  %this.addr = alloca ptr, align 8
  %data.addr = alloca ptr, align 8
  %offset = alloca i64, align 8
  %length = alloca i64, align 8
  %extra = alloca i64, align 8
  store ptr %this, ptr %this.addr, align 8
  store ptr %data, ptr %data.addr, align 8
  %this1 = load ptr, ptr %this.addr, align 8
  %bufsize = getelementptr inbounds %"class.pugi::impl::(anonymous namespace)::xml_buffered_writer", ptr %this1, i32 0, i32 3
  %0 = load i64, ptr %bufsize, align 8
  store i64 %0, ptr %offset, align 8
  br label %while.cond

while.cond:                                       ; preds = %while.body, %entry
  %1 = load ptr, ptr %data.addr, align 8
  %2 = load i8, ptr %1, align 1
  %tobool = icmp ne i8 %2, 0
  br i1 %tobool, label %land.rhs, label %land.end

land.rhs:                                         ; preds = %while.cond
  %3 = load i64, ptr %offset, align 8
  %cmp = icmp ult i64 %3, 2048
  br label %land.end

land.end:                                         ; preds = %land.rhs, %while.cond
  %4 = phi i1 [ false, %while.cond ], [ %cmp, %land.rhs ]
  br i1 %4, label %while.body, label %while.end

while.body:                                       ; preds = %land.end
  %5 = load ptr, ptr %data.addr, align 8
  %incdec.ptr = getelementptr inbounds i8, ptr %5, i32 1
  store ptr %incdec.ptr, ptr %data.addr, align 8
  %6 = load i8, ptr %5, align 1
  %buffer = getelementptr inbounds %"class.pugi::impl::(anonymous namespace)::xml_buffered_writer", ptr %this1, i32 0, i32 0
  %7 = load i64, ptr %offset, align 8
  %inc = add i64 %7, 1
  store i64 %inc, ptr %offset, align 8
  %arrayidx = getelementptr inbounds [2048 x i8], ptr %buffer, i64 0, i64 %7
  store i8 %6, ptr %arrayidx, align 1
  br label %while.cond, !llvm.loop !42

while.end:                                        ; preds = %land.end
  %8 = load i64, ptr %offset, align 8
  %cmp2 = icmp ult i64 %8, 2048
  br i1 %cmp2, label %if.then, label %if.else

if.then:                                          ; preds = %while.end
  %9 = load i64, ptr %offset, align 8
  %bufsize3 = getelementptr inbounds %"class.pugi::impl::(anonymous namespace)::xml_buffered_writer", ptr %this1, i32 0, i32 3
  store i64 %9, ptr %bufsize3, align 8
  br label %if.end

if.else:                                          ; preds = %while.end
  %10 = load i64, ptr %offset, align 8
  %bufsize4 = getelementptr inbounds %"class.pugi::impl::(anonymous namespace)::xml_buffered_writer", ptr %this1, i32 0, i32 3
  %11 = load i64, ptr %bufsize4, align 8
  %sub = sub i64 %10, %11
  store i64 %sub, ptr %length, align 8
  %12 = load i64, ptr %length, align 8
  %13 = load ptr, ptr %data.addr, align 8
  %14 = load i64, ptr %length, align 8
  %idx.neg = sub i64 0, %14
  %add.ptr = getelementptr inbounds i8, ptr %13, i64 %idx.neg
  %15 = load i64, ptr %length, align 8
  %call = call noundef i64 @_ZN4pugi4impl12_GLOBAL__N_116get_valid_lengthEPKcm(ptr noundef %add.ptr, i64 noundef %15)
  %sub5 = sub i64 %12, %call
  store i64 %sub5, ptr %extra, align 8
  %16 = load i64, ptr %offset, align 8
  %17 = load i64, ptr %extra, align 8
  %sub6 = sub i64 %16, %17
  %bufsize7 = getelementptr inbounds %"class.pugi::impl::(anonymous namespace)::xml_buffered_writer", ptr %this1, i32 0, i32 3
  store i64 %sub6, ptr %bufsize7, align 8
  %18 = load ptr, ptr %data.addr, align 8
  %19 = load i64, ptr %extra, align 8
  %idx.neg8 = sub i64 0, %19
  %add.ptr9 = getelementptr inbounds i8, ptr %18, i64 %idx.neg8
  %20 = load ptr, ptr %data.addr, align 8
  %call10 = call noundef i64 @_ZN4pugi4impl12_GLOBAL__N_19strlengthEPKc(ptr noundef %20)
  %21 = load i64, ptr %extra, align 8
  %add = add i64 %call10, %21
  call void @_ZN4pugi4impl12_GLOBAL__N_119xml_buffered_writer12write_directEPKcm(ptr noundef nonnull align 8 dereferenceable(10260) %this1, ptr noundef %add.ptr9, i64 noundef %add)
  br label %if.end

if.end:                                           ; preds = %if.else, %if.then
  ret void
}