; Function Attrs: mustprogress uwtable
define internal fastcc void @_ZN4pugi4impl12_GLOBAL__N_119xml_buffered_writer12write_stringEPKc(ptr noundef nonnull align 8 dereferenceable(10260) %this, ptr noundef %data) unnamed_addr #6 align 2 {
entry:
  %bufsize = getelementptr inbounds i8, ptr %this, i64 10248
  %0 = load i64, ptr %bufsize, align 8
  %1 = load i8, ptr %data, align 1
  %tobool16 = icmp ne i8 %1, 0
  %cmp17 = icmp ult i64 %0, 2048
  %2 = select i1 %tobool16, i1 %cmp17, i1 false
  br i1 %2, label %while.body, label %while.end

while.body:                                       ; preds = %entry, %while.body
  %3 = phi i8 [ %4, %while.body ], [ %1, %entry ]
  %data.addr.019 = phi ptr [ %incdec.ptr, %while.body ], [ %data, %entry ]
  %offset.018 = phi i64 [ %inc, %while.body ], [ %0, %entry ]
  %incdec.ptr = getelementptr inbounds i8, ptr %data.addr.019, i64 1
  %inc = add nuw nsw i64 %offset.018, 1
  %arrayidx = getelementptr inbounds [2048 x i8], ptr %this, i64 0, i64 %offset.018
  store i8 %3, ptr %arrayidx, align 1
  %4 = load i8, ptr %incdec.ptr, align 1
  %tobool = icmp ne i8 %4, 0
  %cmp = icmp ult i64 %offset.018, 2047
  %5 = and i1 %tobool, %cmp
  br i1 %5, label %while.body, label %while.end, !llvm.loop !104

while.end:                                        ; preds = %while.body, %entry
  %offset.0.lcssa = phi i64 [ %0, %entry ], [ %inc, %while.body ]
  %data.addr.0.lcssa = phi ptr [ %data, %entry ], [ %incdec.ptr, %while.body ]
  %cmp.lcssa = phi i1 [ %cmp17, %entry ], [ %cmp, %while.body ]
  br i1 %cmp.lcssa, label %if.then, label %if.else

if.then:                                          ; preds = %while.end
  store i64 %offset.0.lcssa, ptr %bufsize, align 8
  br label %if.end

if.else:                                          ; preds = %while.end
  %6 = load i64, ptr %bufsize, align 8
  %sub = sub i64 %offset.0.lcssa, %6
  %idx.neg = sub i64 0, %sub
  %add.ptr = getelementptr inbounds i8, ptr %data.addr.0.lcssa, i64 %idx.neg
  %cmp.i = icmp ult i64 %sub, 5
  br i1 %cmp.i, label %_ZN4pugi4impl12_GLOBAL__N_116get_valid_lengthEPKcm.exit, label %for.body.i

for.cond.i:                                       ; preds = %for.body.i
  %inc.i = add nuw nsw i64 %i.07.i, 1
  %exitcond.not.i = icmp eq i64 %inc.i, 5
  br i1 %exitcond.not.i, label %_ZN4pugi4impl12_GLOBAL__N_116get_valid_lengthEPKcm.exit, label %for.body.i, !llvm.loop !105

for.body.i:                                       ; preds = %if.else, %for.cond.i
  %i.07.i = phi i64 [ %inc.i, %for.cond.i ], [ 1, %if.else ]
  %sub.i = sub nuw i64 %sub, %i.07.i
  %arrayidx.i = getelementptr inbounds i8, ptr %add.ptr, i64 %sub.i
  %7 = load i8, ptr %arrayidx.i, align 1
  %8 = and i8 %7, -64
  %cmp2.not.i = icmp eq i8 %8, -128
  br i1 %cmp2.not.i, label %for.cond.i, label %_ZN4pugi4impl12_GLOBAL__N_116get_valid_lengthEPKcm.exit

_ZN4pugi4impl12_GLOBAL__N_116get_valid_lengthEPKcm.exit: ; preds = %for.cond.i, %for.body.i, %if.else
  %retval.0.i = phi i64 [ 0, %if.else ], [ %sub.i, %for.body.i ], [ %sub, %for.cond.i ]
  %sub5 = sub i64 %sub, %retval.0.i
  %sub6 = sub i64 %offset.0.lcssa, %sub5
  store i64 %sub6, ptr %bufsize, align 8
  %idx.neg8 = sub i64 0, %sub5
  %add.ptr9 = getelementptr inbounds i8, ptr %data.addr.0.lcssa, i64 %idx.neg8
  %call.i = tail call noundef i64 @strlen(ptr noundef nonnull dereferenceable(1) %data.addr.0.lcssa) #43
  %add = add i64 %call.i, %sub5
  tail call fastcc void @_ZN4pugi4impl12_GLOBAL__N_119xml_buffered_writer5flushEPKcm(ptr noundef nonnull align 8 dereferenceable(10260) %this, ptr noundef nonnull %this, i64 noundef %sub6)
  store i64 0, ptr %bufsize, align 8
  %cmp.i14 = icmp ugt i64 %add, 2048
  br i1 %cmp.i14, label %if.then.i, label %if.end7.i

if.then.i:                                        ; preds = %_ZN4pugi4impl12_GLOBAL__N_116get_valid_lengthEPKcm.exit
  %encoding.i = getelementptr inbounds i8, ptr %this, i64 10256
  %9 = load i32, ptr %encoding.i, align 8
  %cmp3.i = icmp eq i32 %9, 1
  br i1 %cmp3.i, label %if.then4.i, label %for.body.i.preheader.i

if.then4.i:                                       ; preds = %if.then.i
  %writer.i = getelementptr inbounds i8, ptr %this, i64 10240
  %10 = load ptr, ptr %writer.i, align 8
  %vtable.i = load ptr, ptr %10, align 8
  %vfn.i = getelementptr inbounds i8, ptr %vtable.i, i64 16
  %11 = load ptr, ptr %vfn.i, align 8
  tail call void %11(ptr noundef nonnull align 8 dereferenceable(8) %10, ptr noundef nonnull %add.ptr9, i64 noundef %add)
  br label %if.end

for.body.i.preheader.i:                           ; preds = %if.then.i, %_ZN4pugi4impl12_GLOBAL__N_116get_valid_lengthEPKcm.exit.i
  %data.addr.014.i = phi ptr [ %add.ptr.i, %_ZN4pugi4impl12_GLOBAL__N_116get_valid_lengthEPKcm.exit.i ], [ %add.ptr9, %if.then.i ]
  %length.addr.013.i = phi i64 [ %sub.i15, %_ZN4pugi4impl12_GLOBAL__N_116get_valid_lengthEPKcm.exit.i ], [ %add, %if.then.i ]
  br label %for.body.i.i

for.cond.i.i:                                     ; preds = %for.body.i.i
  %inc.i.i = add nuw nsw i64 %i.07.i.i, 1
  %exitcond.not.i.i = icmp eq i64 %inc.i.i, 5
  br i1 %exitcond.not.i.i, label %_ZN4pugi4impl12_GLOBAL__N_116get_valid_lengthEPKcm.exit.i, label %for.body.i.i, !llvm.loop !105

for.body.i.i:                                     ; preds = %for.cond.i.i, %for.body.i.preheader.i
  %i.07.i.i = phi i64 [ %inc.i.i, %for.cond.i.i ], [ 1, %for.body.i.preheader.i ]
  %sub.i.i = sub nuw nsw i64 2048, %i.07.i.i
  %arrayidx.i.i = getelementptr inbounds i8, ptr %data.addr.014.i, i64 %sub.i.i
  %12 = load i8, ptr %arrayidx.i.i, align 1
  %13 = and i8 %12, -64
  %cmp2.not.i.i = icmp eq i8 %13, -128
  br i1 %cmp2.not.i.i, label %for.cond.i.i, label %_ZN4pugi4impl12_GLOBAL__N_116get_valid_lengthEPKcm.exit.i

_ZN4pugi4impl12_GLOBAL__N_116get_valid_lengthEPKcm.exit.i: ; preds = %for.body.i.i, %for.cond.i.i
  %retval.0.i.i = phi i64 [ 2048, %for.cond.i.i ], [ %sub.i.i, %for.body.i.i ]
  tail call fastcc void @_ZN4pugi4impl12_GLOBAL__N_119xml_buffered_writer5flushEPKcm(ptr noundef nonnull align 8 dereferenceable(10260) %this, ptr noundef nonnull %data.addr.014.i, i64 noundef %retval.0.i.i)
  %add.ptr.i = getelementptr inbounds i8, ptr %data.addr.014.i, i64 %retval.0.i.i
  %sub.i15 = sub i64 %length.addr.013.i, %retval.0.i.i
  %cmp5.i = icmp ugt i64 %sub.i15, 2048
  br i1 %cmp5.i, label %for.body.i.preheader.i, label %while.end.i, !llvm.loop !106

while.end.i:                                      ; preds = %_ZN4pugi4impl12_GLOBAL__N_116get_valid_lengthEPKcm.exit.i
  store i64 0, ptr %bufsize, align 8
  br label %if.end7.i

if.end7.i:                                        ; preds = %while.end.i, %_ZN4pugi4impl12_GLOBAL__N_116get_valid_lengthEPKcm.exit
  %length.addr.1.i = phi i64 [ %sub.i15, %while.end.i ], [ %add, %_ZN4pugi4impl12_GLOBAL__N_116get_valid_lengthEPKcm.exit ]
  %data.addr.1.i = phi ptr [ %add.ptr.i, %while.end.i ], [ %add.ptr9, %_ZN4pugi4impl12_GLOBAL__N_116get_valid_lengthEPKcm.exit ]
  tail call void @llvm.memcpy.p0.p0.i64(ptr nonnull align 8 %this, ptr align 1 %data.addr.1.i, i64 %length.addr.1.i, i1 false)
  %14 = load i64, ptr %bufsize, align 8
  %add.i = add i64 %14, %length.addr.1.i
  store i64 %add.i, ptr %bufsize, align 8
  br label %if.end

if.end:                                           ; preds = %if.end7.i, %if.then4.i, %if.then
  ret void
}